ccopy_reg
_reconstructor
p0
(csklearn.linear_model.logistic
LogisticRegression
p1
c__builtin__
object
p2
Ntp3
Rp4
(dp5
S'warm_start'
p6
I00
sS'C'
p7
F1.0
sS'max_iter'
p8
I100
sS'verbose'
p9
I0
sS'intercept_scaling'
p10
I1
sS'dual'
p11
I00
sS'fit_intercept'
p12
I01
sS'classes_'
p13
cnumpy.core.multiarray
_reconstruct
p14
(cnumpy
ndarray
p15
(I0
tp16
S'b'
p17
tp18
Rp19
(I1
(I3
tp20
cnumpy
dtype
p21
(S'i8'
p22
I0
I1
tp23
Rp24
(I3
S'<'
p25
NNNI-1
I-1
I0
tp26
bI00
S'\x00\x00\x00\x00\x00\x00\x00\x00\x01\x00\x00\x00\x00\x00\x00\x00\x02\x00\x00\x00\x00\x00\x00\x00'
p27
tp28
bsS'solver'
p29
S'liblinear'
p30
sS'n_iter_'
p31
g14
(g15
(I0
tp32
g17
tp33
Rp34
(I1
(I1
tp35
g21
(S'i4'
p36
I0
I1
tp37
Rp38
(I3
S'<'
p39
NNNI-1
I-1
I0
tp40
bI00
S'\x05\x00\x00\x00'
p41
tp42
bsS'penalty'
p43
S'l2'
p44
sS'multi_class'
p45
S'ovr'
p46
sS'random_state'
p47
NsS'tol'
p48
F0.0001
sS'n_jobs'
p49
I1
sS'coef_'
p50
g14
(g15
(I0
tp51
g17
tp52
Rp53
(I1
(I3
I2
tp54
g21
(S'f8'
p55
I0
I1
tp56
Rp57
(I3
S'<'
p58
NNNI-1
I-1
I0
tp59
bI01
S'\xef\xdaQ&\xe7o\x02\xc0\xc5\xd4\x8drT\x14\xe1?V\xc1\xa8F\xf1\xf0\xf0?Sd\x93\x9f\x82j\r@\x01\x88\xaf\xbb\x01{\xf9\xbf\xfe\x95H\\\x84\x93\xfb\xbf'
p60
tp61
bsS'intercept_'
p62
g14
(g15
(I0
tp63
g17
tp64
Rp65
(I1
(I3
tp66
g57
I00
S'\xf1\xda;\xbau\xcb\xe6?\xf3<\xc2\xaa\x11J\xee?\x02e\x89Zi\x8f\xfc\xbf'
p67
tp68
bsS'class_weight'
p69
Nsb.